; Function Attrs: mustprogress nofree norecurse nosync nounwind willreturn memory(argmem: read) uwtable
define signext i8 @ubidi_isOrderParagraphsLTR_77(ptr noundef readonly %0) local_unnamed_addr #7 {
  %.not = icmp eq ptr %0, null
  br i1 %.not, label %5, label %2

2:                                                ; preds = %1
  %3 = getelementptr inbounds nuw i8, ptr %0, i64 140
  %4 = load i8, ptr %3, align 4, !tbaa !84
  br label %5

5:                                                ; preds = %1, %2
  %.0 = phi i8 [ %4, %2 ], [ 0, %1 ]
  ret i8 %.0
}